
test.elf:     file format elf32-littleriscv


Disassembly of section .text:

00000000 <start>:
   0:	00000093          	li	ra,0
   4:	20002117          	auipc	sp,0x20002
   8:	ffc10113          	addi	sp,sp,-4 # 20002000 <_stack>
   c:	00000193          	li	gp,0
  10:	00000213          	li	tp,0
  14:	00000293          	li	t0,0
  18:	00000313          	li	t1,0
  1c:	00000393          	li	t2,0
  20:	00000413          	li	s0,0
  24:	00000493          	li	s1,0
  28:	00000513          	li	a0,0
  2c:	00000593          	li	a1,0
  30:	00000613          	li	a2,0
  34:	00000693          	li	a3,0
  38:	00000713          	li	a4,0
  3c:	00000793          	li	a5,0
  40:	00000813          	li	a6,0
  44:	00000893          	li	a7,0
  48:	00000913          	li	s2,0
  4c:	00000993          	li	s3,0
  50:	00000a13          	li	s4,0
  54:	00000a93          	li	s5,0
  58:	00000b13          	li	s6,0
  5c:	00000b93          	li	s7,0
  60:	00000c13          	li	s8,0
  64:	00000c93          	li	s9,0
  68:	00000d13          	li	s10,0
  6c:	00000d93          	li	s11,0
  70:	00000e13          	li	t3,0
  74:	00000e93          	li	t4,0
  78:	00000f13          	li	t5,0
  7c:	00000f93          	li	t6,0
  80:	00000517          	auipc	a0,0x0
  84:	0c450513          	addi	a0,a0,196 # 144 <_sidata>
  88:	20000597          	auipc	a1,0x20000
  8c:	f7858593          	addi	a1,a1,-136 # 20000000 <uart_data>
  90:	20000617          	auipc	a2,0x20000
  94:	f9060613          	addi	a2,a2,-112 # 20000020 <_ebss>
  98:	00c5dc63          	bge	a1,a2,b0 <end_init_data>

0000009c <loop_init_data>:
  9c:	00052683          	lw	a3,0(a0)
  a0:	00d5a023          	sw	a3,0(a1)
  a4:	00450513          	addi	a0,a0,4
  a8:	00458593          	addi	a1,a1,4
  ac:	fec5c8e3          	blt	a1,a2,9c <loop_init_data>

000000b0 <end_init_data>:
  b0:	20000517          	auipc	a0,0x20000
  b4:	f7050513          	addi	a0,a0,-144 # 20000020 <_ebss>
  b8:	20000597          	auipc	a1,0x20000
  bc:	f6858593          	addi	a1,a1,-152 # 20000020 <_ebss>
  c0:	00b55863          	bge	a0,a1,d0 <end_init_bss>

000000c4 <loop_init_bss>:
  c4:	00052023          	sw	zero,0(a0)
  c8:	00450513          	addi	a0,a0,4
  cc:	feb54ce3          	blt	a0,a1,c4 <loop_init_bss>

000000d0 <end_init_bss>:
  d0:	040000ef          	jal	110 <main>

000000d4 <loop>:
  d4:	0000006f          	j	d4 <loop>

000000d8 <delay>:
  d8:	000017b7          	lui	a5,0x1
  dc:	77078793          	addi	a5,a5,1904 # 1770 <_sidata+0x162c>
  e0:	02f50533          	mul	a0,a0,a5
  e4:	200007b7          	lui	a5,0x20000
  e8:	0107a683          	lw	a3,16(a5) # 20000010 <LOAD_VALUE>
  ec:	200007b7          	lui	a5,0x20000
  f0:	0147a703          	lw	a4,20(a5) # 20000014 <TIMER_STATUS>
  f4:	00100793          	li	a5,1
  f8:	00a6a023          	sw	a0,0(a3)
  fc:	00f72023          	sw	a5,0(a4)
 100:	00072783          	lw	a5,0(a4)
 104:	1007f793          	andi	a5,a5,256
 108:	fe078ce3          	beqz	a5,100 <delay+0x28>
 10c:	00008067          	ret

00000110 <main>:
 110:	20000737          	lui	a4,0x20000
 114:	200007b7          	lui	a5,0x20000
 118:	01072583          	lw	a1,16(a4) # 20000010 <LOAD_VALUE>
 11c:	0147a703          	lw	a4,20(a5) # 20000014 <TIMER_STATUS>
 120:	000016b7          	lui	a3,0x1
 124:	77068693          	addi	a3,a3,1904 # 1770 <_sidata+0x162c>
 128:	00100613          	li	a2,1
 12c:	00d5a023          	sw	a3,0(a1)
 130:	00c72023          	sw	a2,0(a4)
 134:	00072783          	lw	a5,0(a4)
 138:	1007f793          	andi	a5,a5,256
 13c:	fe078ce3          	beqz	a5,134 <main+0x24>
 140:	fedff06f          	j	12c <main+0x1c>

Disassembly of section .data:

20000000 <uart_data>:
20000000:	000c                	.insn	2, 0x000c
20000002:	5000                	.insn	2, 0x5000

20000004 <uart_status>:
20000004:	0008                	.insn	2, 0x0008
20000006:	5000                	.insn	2, 0x5000

20000008 <uart_bauddiv>:
20000008:	0004                	.insn	2, 0x0004
2000000a:	5000                	.insn	2, 0x5000

2000000c <uart_ctrl>:
2000000c:	0000                	.insn	2, 0x
2000000e:	5000                	.insn	2, 0x5000

20000010 <LOAD_VALUE>:
20000010:	0004                	.insn	2, 0x0004
20000012:	4300                	.insn	2, 0x4300

20000014 <TIMER_STATUS>:
20000014:	0000                	.insn	2, 0x
20000016:	4300                	.insn	2, 0x4300

20000018 <gpio_oe_A>:
20000018:	0004                	.insn	2, 0x0004
2000001a:	4000                	.insn	2, 0x4000

2000001c <gpio_data_A>:
2000001c:	0000                	.insn	2, 0x
2000001e:	4000                	.insn	2, 0x4000

Disassembly of section .riscv.attributes:

00000000 <.riscv.attributes>:
   0:	2941                	.insn	2, 0x2941
   2:	0000                	.insn	2, 0x
   4:	7200                	.insn	2, 0x7200
   6:	7369                	.insn	2, 0x7369
   8:	01007663          	bgeu	zero,a6,14 <start+0x14>
   c:	001f 0000 1004      	.insn	6, 0x10040000001f
  12:	7205                	.insn	2, 0x7205
  14:	3376                	.insn	2, 0x3376
  16:	6932                	.insn	2, 0x6932
  18:	7032                	.insn	2, 0x7032
  1a:	5f31                	.insn	2, 0x5f31
  1c:	326d                	.insn	2, 0x326d
  1e:	3070                	.insn	2, 0x3070
  20:	7a5f 6d6d 6c75      	.insn	6, 0x6c756d6d7a5f
  26:	7031                	.insn	2, 0x7031
  28:	0030                	.insn	2, 0x0030

Disassembly of section .comment:

00000000 <.comment>:
   0:	3a434347          	.insn	4, 0x3a434347
   4:	2820                	.insn	2, 0x2820
   6:	2029                	.insn	2, 0x2029
   8:	3431                	.insn	2, 0x3431
   a:	322e                	.insn	2, 0x322e
   c:	302e                	.insn	2, 0x302e
	...
